target datalayout = "e-m:e-p270:32:32-p271:32:32-p272:64:64-i64:64-i128:128-f80:128-n8:16:32:64-S128"
target triple = "x86_64-pc-linux-gnu"

%struct.Curl_cftype = type { ptr, i32, i32, ptr, ptr, ptr, ptr, ptr, ptr, ptr, ptr, ptr, ptr, ptr, ptr, ptr }
%struct.Curl_sockaddr_ex = type { i32, i32, i32, i32, %union.anon }
%union.anon = type { %struct.Curl_sockaddr_storage }
%struct.Curl_sockaddr_storage = type { %union.anon.0 }
%union.anon.0 = type { %struct.sockaddr_storage }
%struct.sockaddr_storage = type { i16, [118 x i8], i64 }
%struct.curltime = type { i64, i32 }
%struct.ip_quadruple = type { [46 x i8], [46 x i8], i32, i32 }
%struct.Curl_cfilter = type { ptr, ptr, ptr, ptr, i32, i8 }
%struct.cf_socket_ctx = type { i32, %struct.Curl_sockaddr_ex, i32, %struct.ip_quadruple, %struct.curltime, %struct.curltime, %struct.curltime, i32, i8 }

; Function Attrs: nounwind uwtable
define internal i32 @cf_socket_query(ptr noundef %0, ptr noundef %1, i32 noundef %2, ptr noundef %3, ptr noundef %4) #0 {
  %6 = alloca i32, align 4
  %7 = alloca ptr, align 8
  %8 = alloca ptr, align 8
  %9 = alloca i32, align 4
  %10 = alloca ptr, align 8
  %11 = alloca ptr, align 8
  %12 = alloca ptr, align 8
  %13 = alloca i32, align 4
  %14 = alloca i64, align 8
  %15 = alloca ptr, align 8
  store ptr %0, ptr %7, align 8, !tbaa !118
  store ptr %1, ptr %8, align 8, !tbaa !23
  store i32 %2, ptr %9, align 4, !tbaa !10
  store ptr %3, ptr %10, align 8, !tbaa !25
  store ptr %4, ptr %11, align 8, !tbaa !117
  call void @llvm.lifetime.start.p0(i64 8, ptr %12) #9
  %16 = load ptr, ptr %7, align 8, !tbaa !118
  %17 = getelementptr inbounds nuw %struct.Curl_cfilter, ptr %16, i32 0, i32 2
  %18 = load ptr, ptr %17, align 8, !tbaa !120
  store ptr %18, ptr %12, align 8, !tbaa !123
  %19 = load i32, ptr %9, align 4, !tbaa !10
  switch i32 %19, label %94 [
    i32 3, label %20
    i32 2, label %28
    i32 4, label %61
    i32 8, label %83
  ]

20:                                               ; preds = %5
  br label %21

21:                                               ; preds = %20
  br label %22

22:                                               ; preds = %21
  br label %23

23:                                               ; preds = %22
  %24 = load ptr, ptr %12, align 8, !tbaa !123
  %25 = getelementptr inbounds nuw %struct.cf_socket_ctx, ptr %24, i32 0, i32 2
  %26 = load i32, ptr %25, align 8, !tbaa !137
  %27 = load ptr, ptr %11, align 8, !tbaa !117
  store i32 %26, ptr %27, align 4, !tbaa !10
  store i32 0, ptr %6, align 4
  store i32 1, ptr %13, align 4
  br label %119

28:                                               ; preds = %5
  %29 = load ptr, ptr %12, align 8, !tbaa !123
  %30 = getelementptr inbounds nuw %struct.cf_socket_ctx, ptr %29, i32 0, i32 8
  %31 = load i8, ptr %30, align 4
  %32 = and i8 %31, 1
  %33 = zext i8 %32 to i32
  %34 = icmp ne i32 %33, 0
  br i1 %34, label %35, label %58

35:                                               ; preds = %28
  call void @llvm.lifetime.start.p0(i64 8, ptr %14) #9
  %36 = load ptr, ptr %12, align 8, !tbaa !123
  %37 = getelementptr inbounds nuw %struct.cf_socket_ctx, ptr %36, i32 0, i32 6
  %38 = load ptr, ptr %12, align 8, !tbaa !123
  %39 = getelementptr inbounds nuw %struct.cf_socket_ctx, ptr %38, i32 0, i32 4
  %40 = getelementptr inbounds nuw { i64, i32 }, ptr %37, i32 0, i32 0
  %41 = load i64, ptr %40, align 8
  %42 = getelementptr inbounds nuw { i64, i32 }, ptr %37, i32 0, i32 1
  %43 = load i32, ptr %42, align 8
  %44 = getelementptr inbounds nuw { i64, i32 }, ptr %39, i32 0, i32 0
  %45 = load i64, ptr %44, align 8
  %46 = getelementptr inbounds nuw { i64, i32 }, ptr %39, i32 0, i32 1
  %47 = load i32, ptr %46, align 8
  %48 = call i64 @Curl_timediff(i64 %41, i32 %43, i64 %45, i32 %47)
  store i64 %48, ptr %14, align 8, !tbaa !115
  %49 = load i64, ptr %14, align 8, !tbaa !115
  %50 = icmp slt i64 %49, 2147483647
  br i1 %50, label %51, label %54

51:                                               ; preds = %35
  %52 = load i64, ptr %14, align 8, !tbaa !115
  %53 = trunc i64 %52 to i32
  br label %55

54:                                               ; preds = %35
  br label %55

55:                                               ; preds = %54, %51
  %56 = phi i32 [ %53, %51 ], [ 2147483647, %54 ]
  %57 = load ptr, ptr %10, align 8, !tbaa !25
  store i32 %56, ptr %57, align 4, !tbaa !10
  call void @llvm.lifetime.end.p0(i64 8, ptr %14) #9
  br label %60

58:                                               ; preds = %28
  %59 = load ptr, ptr %10, align 8, !tbaa !25
  store i32 -1, ptr %59, align 4, !tbaa !10
  br label %60

60:                                               ; preds = %58, %55
  store i32 0, ptr %6, align 4
  store i32 1, ptr %13, align 4
  br label %119

61:                                               ; preds = %5
  call void @llvm.lifetime.start.p0(i64 8, ptr %15) #9
  %62 = load ptr, ptr %11, align 8, !tbaa !117
  store ptr %62, ptr %15, align 8, !tbaa !156
  %63 = load ptr, ptr %12, align 8, !tbaa !123
  %64 = getelementptr inbounds nuw %struct.cf_socket_ctx, ptr %63, i32 0, i32 0
  %65 = load i32, ptr %64, align 8, !tbaa !147
  switch i32 %65, label %78 [
    i32 4, label %66
    i32 5, label %66
  ]

66:                                               ; preds = %61, %61
  %67 = load ptr, ptr %12, align 8, !tbaa !123
  %68 = getelementptr inbounds nuw %struct.cf_socket_ctx, ptr %67, i32 0, i32 8
  %69 = load i8, ptr %68, align 4
  %70 = and i8 %69, 1
  %71 = zext i8 %70 to i32
  %72 = icmp ne i32 %71, 0
  br i1 %72, label %73, label %77

73:                                               ; preds = %66
  %74 = load ptr, ptr %15, align 8, !tbaa !156
  %75 = load ptr, ptr %12, align 8, !tbaa !123
  %76 = getelementptr inbounds nuw %struct.cf_socket_ctx, ptr %75, i32 0, i32 6
  call void @llvm.memcpy.p0.p0.i64(ptr align 8 %74, ptr align 8 %76, i64 16, i1 false), !tbaa.struct !141
  br label %82

77:                                               ; preds = %66
  br label %78

78:                                               ; preds = %61, %77
  %79 = load ptr, ptr %15, align 8, !tbaa !156
  %80 = load ptr, ptr %12, align 8, !tbaa !123
  %81 = getelementptr inbounds nuw %struct.cf_socket_ctx, ptr %80, i32 0, i32 5
  call void @llvm.memcpy.p0.p0.i64(ptr align 8 %79, ptr align 8 %81, i64 16, i1 false), !tbaa.struct !141
  br label %82

82:                                               ; preds = %78, %73
  store i32 0, ptr %6, align 4
  store i32 1, ptr %13, align 4
  call void @llvm.lifetime.end.p0(i64 8, ptr %15) #9
  br label %119

83:                                               ; preds = %5
  %84 = load ptr, ptr %12, align 8, !tbaa !123
  %85 = getelementptr inbounds nuw %struct.cf_socket_ctx, ptr %84, i32 0, i32 1
  %86 = getelementptr inbounds nuw %struct.Curl_sockaddr_ex, ptr %85, i32 0, i32 0
  %87 = load i32, ptr %86, align 8, !tbaa !158
  %88 = icmp eq i32 %87, 10
  %89 = zext i1 %88 to i32
  %90 = load ptr, ptr %10, align 8, !tbaa !25
  store i32 %89, ptr %90, align 4, !tbaa !10
  %91 = load ptr, ptr %11, align 8, !tbaa !117
  %92 = load ptr, ptr %12, align 8, !tbaa !123
  %93 = getelementptr inbounds nuw %struct.cf_socket_ctx, ptr %92, i32 0, i32 3
  call void @llvm.memcpy.p0.p0.i64(ptr align 4 %91, ptr align 4 %93, i64 100, i1 false), !tbaa.struct !159
  store i32 0, ptr %6, align 4
  store i32 1, ptr %13, align 4
  br label %119

94:                                               ; preds = %5
  br label %95

95:                                               ; preds = %94
  %96 = load ptr, ptr %7, align 8, !tbaa !118
  %97 = getelementptr inbounds nuw %struct.Curl_cfilter, ptr %96, i32 0, i32 1
  %98 = load ptr, ptr %97, align 8, !tbaa !160
  %99 = icmp ne ptr %98, null
  br i1 %99, label %100, label %116

100:                                              ; preds = %95
  %101 = load ptr, ptr %7, align 8, !tbaa !118
  %102 = getelementptr inbounds nuw %struct.Curl_cfilter, ptr %101, i32 0, i32 1
  %103 = load ptr, ptr %102, align 8, !tbaa !160
  %104 = getelementptr inbounds nuw %struct.Curl_cfilter, ptr %103, i32 0, i32 0
  %105 = load ptr, ptr %104, align 8, !tbaa !128
  %106 = getelementptr inbounds nuw %struct.Curl_cftype, ptr %105, i32 0, i32 15
  %107 = load ptr, ptr %106, align 8, !tbaa !161
  %108 = load ptr, ptr %7, align 8, !tbaa !118
  %109 = getelementptr inbounds nuw %struct.Curl_cfilter, ptr %108, i32 0, i32 1
  %110 = load ptr, ptr %109, align 8, !tbaa !160
  %111 = load ptr, ptr %8, align 8, !tbaa !23
  %112 = load i32, ptr %9, align 4, !tbaa !10
  %113 = load ptr, ptr %10, align 8, !tbaa !25
  %114 = load ptr, ptr %11, align 8, !tbaa !117
  %115 = call i32 %107(ptr noundef %110, ptr noundef %111, i32 noundef %112, ptr noundef %113, ptr noundef %114)
  br label %117

116:                                              ; preds = %95
  br label %117

117:                                              ; preds = %116, %100
  %118 = phi i32 [ %115, %100 ], [ 48, %116 ]
  store i32 %118, ptr %6, align 4
  store i32 1, ptr %13, align 4
  br label %119

119:                                              ; preds = %117, %83, %82, %60, %23
  call void @llvm.lifetime.end.p0(i64 8, ptr %12) #9
  %120 = load i32, ptr %6, align 4
  ret i32 %120
}