; Function Attrs: nounwind uwtable
define internal i32 @cf_socket_query(ptr noundef readonly captures(none) %0, ptr noundef %1, i32 noundef %2, ptr noundef %3, ptr noundef %4) #2 {
  %6 = getelementptr inbounds nuw i8, ptr %0, i64 16
  %7 = load ptr, ptr %6, align 8, !tbaa !104
  switch i32 %2, label %45 [
    i32 3, label %8
    i32 2, label %11
    i32 4, label %28
    i32 8, label %39
  ]

8:                                                ; preds = %5
  %9 = getelementptr inbounds nuw i8, ptr %7, i64 152
  %10 = load i32, ptr %9, align 8, !tbaa !116
  store i32 %10, ptr %4, align 4, !tbaa !87
  br label %53

11:                                               ; preds = %5
  %12 = getelementptr inbounds nuw i8, ptr %7, i64 308
  %13 = load i8, ptr %12, align 4
  %14 = and i8 %13, 1
  %.not30 = icmp eq i8 %14, 0
  br i1 %.not30, label %27, label %15

15:                                               ; preds = %11
  %16 = getelementptr inbounds nuw i8, ptr %7, i64 288
  %17 = getelementptr inbounds nuw i8, ptr %7, i64 256
  %18 = load i64, ptr %16, align 8
  %19 = getelementptr inbounds nuw i8, ptr %7, i64 296
  %20 = load i32, ptr %19, align 8
  %21 = load i64, ptr %17, align 8
  %22 = getelementptr inbounds nuw i8, ptr %7, i64 264
  %23 = load i32, ptr %22, align 8
  %24 = tail call i64 @Curl_timediff(i64 %18, i32 %20, i64 %21, i32 %23) #13
  %25 = tail call i64 @llvm.smin.i64(i64 %24, i64 2147483647)
  %26 = trunc i64 %25 to i32
  br label %27

27:                                               ; preds = %11, %15
  %storemerge = phi i32 [ %26, %15 ], [ -1, %11 ]
  store i32 %storemerge, ptr %3, align 4, !tbaa !87
  br label %53

28:                                               ; preds = %5
  %29 = load i32, ptr %7, align 8, !tbaa !128
  %30 = and i32 %29, -2
  %switch = icmp eq i32 %30, 4
  br i1 %switch, label %31, label %37

31:                                               ; preds = %28
  %32 = getelementptr inbounds nuw i8, ptr %7, i64 308
  %33 = load i8, ptr %32, align 4
  %34 = and i8 %33, 1
  %.not = icmp eq i8 %34, 0
  br i1 %.not, label %37, label %35

35:                                               ; preds = %31
  %36 = getelementptr inbounds nuw i8, ptr %7, i64 288
  tail call void @llvm.memcpy.p0.p0.i64(ptr noundef nonnull align 8 dereferenceable(16) %4, ptr noundef nonnull align 8 dereferenceable(16) %36, i64 16, i1 false), !tbaa.struct !139
  br label %53

37:                                               ; preds = %28, %31
  %38 = getelementptr inbounds nuw i8, ptr %7, i64 272
  tail call void @llvm.memcpy.p0.p0.i64(ptr noundef nonnull align 8 dereferenceable(16) %4, ptr noundef nonnull align 8 dereferenceable(16) %38, i64 16, i1 false), !tbaa.struct !139
  br label %53

39:                                               ; preds = %5
  %40 = getelementptr inbounds nuw i8, ptr %7, i64 8
  %41 = load i32, ptr %40, align 8, !tbaa !132
  %42 = icmp eq i32 %41, 10
  %43 = zext i1 %42 to i32
  store i32 %43, ptr %3, align 4, !tbaa !87
  %44 = getelementptr inbounds nuw i8, ptr %7, i64 156
  tail call void @llvm.memcpy.p0.p0.i64(ptr noundef nonnull align 4 dereferenceable(100) %4, ptr noundef nonnull align 4 dereferenceable(100) %44, i64 100, i1 false), !tbaa.struct !131
  br label %53

45:                                               ; preds = %5
  %46 = getelementptr inbounds nuw i8, ptr %0, i64 8
  %47 = load ptr, ptr %46, align 8, !tbaa !140
  %.not31 = icmp eq ptr %47, null
  br i1 %.not31, label %53, label %48

48:                                               ; preds = %45
  %49 = load ptr, ptr %47, align 8, !tbaa !111
  %50 = getelementptr inbounds nuw i8, ptr %49, i64 112
  %51 = load ptr, ptr %50, align 8, !tbaa !141
  %52 = tail call i32 %51(ptr noundef nonnull %47, ptr noundef %1, i32 noundef %2, ptr noundef %3, ptr noundef %4) #13
  br label %53

53:                                               ; preds = %48, %45, %35, %37, %39, %27, %8
  %.0 = phi i32 [ 0, %39 ], [ 0, %27 ], [ 0, %8 ], [ 0, %37 ], [ 0, %35 ], [ %52, %48 ], [ 48, %45 ]
  ret i32 %.0
}